; Function Attrs: mustprogress uwtable
define void @rocksdb_backup_engine_create_new_backup_flush(ptr noundef readonly captures(none) %0, ptr noundef readonly captures(none) %1, i8 noundef zeroext %2, ptr noundef captures(none) %3) local_unnamed_addr #0 personality ptr @__gxx_personality_v0 {
  %5 = alloca %"class.rocksdb::IOStatus", align 8
  %6 = alloca %"class.std::function", align 8
  call void @llvm.lifetime.start.p0(i64 16, ptr nonnull %5) #43
  %7 = load ptr, ptr %0, align 8, !tbaa !119
  %8 = getelementptr inbounds nuw i8, ptr %7, i64 8
  %9 = load ptr, ptr %1, align 8, !tbaa !26
  %10 = icmp ne i8 %2, 0
  %11 = getelementptr inbounds nuw i8, ptr %6, i64 16
  %12 = getelementptr inbounds nuw i8, ptr %6, i64 24
  call void @llvm.memset.p0.i64(ptr noundef nonnull align 8 dereferenceable(32) %6, i8 0, i64 16, i1 false)
  store ptr @_ZNSt17_Function_handlerIFvvEZN7rocksdb26BackupEngineAppendOnlyBase15CreateNewBackupEPNS1_2DBEbSt8functionIS0_EEd_UlvE_E9_M_invokeERKSt9_Any_data, ptr %12, align 8, !tbaa !123
  store ptr @_ZNSt17_Function_handlerIFvvEZN7rocksdb26BackupEngineAppendOnlyBase15CreateNewBackupEPNS1_2DBEbSt8functionIS0_EEd_UlvE_E10_M_managerERSt9_Any_dataRKS9_St18_Manager_operation, ptr %11, align 8, !tbaa !126
  %13 = load ptr, ptr %8, align 8, !tbaa !23
  %14 = getelementptr inbounds nuw i8, ptr %13, i64 40
  %15 = load ptr, ptr %14, align 8
  invoke void %15(ptr dead_on_unwind nonnull writable sret(%"class.rocksdb::IOStatus") align 8 %5, ptr noundef nonnull align 8 dereferenceable(8) %8, ptr noundef %9, i1 noundef zeroext %10, ptr noundef nonnull %6)
          to label %16 unwind label %27

16:                                               ; preds = %4
  %17 = invoke fastcc noundef zeroext i1 @_ZL9SaveErrorPPcRKN7rocksdb6StatusE(ptr noundef %3, ptr noundef nonnull align 8 dereferenceable(16) %5)
          to label %18 unwind label %29

18:                                               ; preds = %16
  %19 = getelementptr inbounds nuw i8, ptr %5, i64 8
  %20 = load ptr, ptr %19, align 8, !tbaa !25
  %.not.i.i = icmp eq ptr %20, null
  br i1 %.not.i.i, label %_ZN7rocksdb6StatusD2Ev.exit, label %_ZNKSt14default_deleteIA_KcEclIS0_EENSt9enable_ifIXsr14is_convertibleIPA_T_PS1_EE5valueEvE4typeEPS5_.exit.i.i

_ZNKSt14default_deleteIA_KcEclIS0_EENSt9enable_ifIXsr14is_convertibleIPA_T_PS1_EE5valueEvE4typeEPS5_.exit.i.i: ; preds = %18
  call void @_ZdaPv(ptr noundef nonnull %20) #45
  br label %_ZN7rocksdb6StatusD2Ev.exit

_ZN7rocksdb6StatusD2Ev.exit:                      ; preds = %18, %_ZNKSt14default_deleteIA_KcEclIS0_EENSt9enable_ifIXsr14is_convertibleIPA_T_PS1_EE5valueEvE4typeEPS5_.exit.i.i
  store ptr null, ptr %19, align 8, !tbaa !25
  %21 = load ptr, ptr %11, align 8, !tbaa !126
  %.not.i = icmp eq ptr %21, null
  br i1 %.not.i, label %_ZNSt14_Function_baseD2Ev.exit, label %22

22:                                               ; preds = %_ZN7rocksdb6StatusD2Ev.exit
  %23 = invoke noundef zeroext i1 %21(ptr noundef nonnull align 8 dereferenceable(32) %6, ptr noundef nonnull align 8 dereferenceable(32) %6, i32 noundef 3)
          to label %_ZNSt14_Function_baseD2Ev.exit unwind label %24

24:                                               ; preds = %22
  %25 = landingpad { ptr, i32 }
          catch ptr null
  %26 = extractvalue { ptr, i32 } %25, 0
  call void @__clang_call_terminate(ptr %26) #47
  unreachable

_ZNSt14_Function_baseD2Ev.exit:                   ; preds = %_ZN7rocksdb6StatusD2Ev.exit, %22
  call void @llvm.lifetime.end.p0(i64 16, ptr nonnull %5) #43
  ret void

27:                                               ; preds = %4
  %28 = landingpad { ptr, i32 }
          cleanup
  br label %33

29:                                               ; preds = %16
  %30 = landingpad { ptr, i32 }
          cleanup
  %31 = getelementptr inbounds nuw i8, ptr %5, i64 8
  %32 = load ptr, ptr %31, align 8, !tbaa !25
  %.not.i.i7 = icmp eq ptr %32, null
  br i1 %.not.i.i7, label %_ZN7rocksdb6StatusD2Ev.exit9, label %_ZNKSt14default_deleteIA_KcEclIS0_EENSt9enable_ifIXsr14is_convertibleIPA_T_PS1_EE5valueEvE4typeEPS5_.exit.i.i8

_ZNKSt14default_deleteIA_KcEclIS0_EENSt9enable_ifIXsr14is_convertibleIPA_T_PS1_EE5valueEvE4typeEPS5_.exit.i.i8: ; preds = %29
  call void @_ZdaPv(ptr noundef nonnull %32) #45
  br label %_ZN7rocksdb6StatusD2Ev.exit9

_ZN7rocksdb6StatusD2Ev.exit9:                     ; preds = %29, %_ZNKSt14default_deleteIA_KcEclIS0_EENSt9enable_ifIXsr14is_convertibleIPA_T_PS1_EE5valueEvE4typeEPS5_.exit.i.i8
  store ptr null, ptr %31, align 8, !tbaa !25
  br label %33

33:                                               ; preds = %_ZN7rocksdb6StatusD2Ev.exit9, %27
  %.pn = phi { ptr, i32 } [ %30, %_ZN7rocksdb6StatusD2Ev.exit9 ], [ %28, %27 ]
  %34 = load ptr, ptr %11, align 8, !tbaa !126
  %.not.i10 = icmp eq ptr %34, null
  br i1 %.not.i10, label %_ZNSt14_Function_baseD2Ev.exit11, label %35

35:                                               ; preds = %33
  %36 = invoke noundef zeroext i1 %34(ptr noundef nonnull align 8 dereferenceable(32) %6, ptr noundef nonnull align 8 dereferenceable(32) %6, i32 noundef 3)
          to label %_ZNSt14_Function_baseD2Ev.exit11 unwind label %37

37:                                               ; preds = %35
  %38 = landingpad { ptr, i32 }
          catch ptr null
  %39 = extractvalue { ptr, i32 } %38, 0
  call void @__clang_call_terminate(ptr %39) #47
  unreachable

_ZNSt14_Function_baseD2Ev.exit11:                 ; preds = %33, %35
  call void @llvm.lifetime.end.p0(i64 16, ptr nonnull %5) #43
  resume { ptr, i32 } %.pn
}